target datalayout = "e-m:e-p270:32:32-p271:32:32-p272:64:64-i64:64-i128:128-f80:128-n8:16:32:64-S128"
target triple = "x86_64-pc-linux-gnu"

@bio_err = external global ptr, align 8
@.str.19 = private unnamed_addr constant [9 x i8] c"https://\00", align 1
@.str.20 = private unnamed_addr constant [38 x i8] c"Loading %s over HTTPS is unsupported\0A\00", align 1
@.str.21 = private unnamed_addr constant [8 x i8] c"http://\00", align 1
@.str.22 = private unnamed_addr constant [27 x i8] c"Unable to load %s from %s\0A\00", align 1
@.str.23 = private unnamed_addr constant [4 x i8] c"CRL\00", align 1

; Function Attrs: nounwind uwtable
define dso_local ptr @load_crl(ptr noundef %0, i32 noundef %1, i32 noundef %2, ptr noundef %3) #0 {
  %5 = alloca ptr, align 8
  %6 = alloca i32, align 4
  %7 = alloca i32, align 4
  %8 = alloca ptr, align 8
  %9 = alloca ptr, align 8
  store ptr %0, ptr %5, align 8, !tbaa !9
  store i32 %1, ptr %6, align 4, !tbaa !25
  store i32 %2, ptr %7, align 4, !tbaa !25
  store ptr %3, ptr %8, align 8, !tbaa !9
  call void @llvm.lifetime.start.p0(i64 8, ptr %9) #12
  store ptr null, ptr %9, align 8, !tbaa !71
  %10 = load ptr, ptr %8, align 8, !tbaa !9
  %11 = icmp eq ptr %10, null
  br i1 %11, label %12, label %13

12:                                               ; preds = %4
  store ptr @.str.23, ptr %8, align 8, !tbaa !9
  br label %13

13:                                               ; preds = %12, %4
  %14 = load ptr, ptr %5, align 8, !tbaa !9
  %15 = icmp ne ptr %14, null
  br i1 %15, label %16, label %24

16:                                               ; preds = %13
  %17 = load ptr, ptr %5, align 8, !tbaa !9
  %18 = call i32 @strncmp(ptr noundef %17, ptr noundef @.str.19, i64 noundef 8) #14
  %19 = icmp eq i32 %18, 0
  br i1 %19, label %20, label %24

20:                                               ; preds = %16
  %21 = load ptr, ptr @bio_err, align 8, !tbaa !35
  %22 = load ptr, ptr %8, align 8, !tbaa !9
  %23 = call i32 (ptr, ptr, ...) @BIO_printf(ptr noundef %21, ptr noundef @.str.20, ptr noundef %22)
  br label %50

24:                                               ; preds = %16, %13
  %25 = load ptr, ptr %5, align 8, !tbaa !9
  %26 = icmp ne ptr %25, null
  br i1 %26, label %27, label %43

27:                                               ; preds = %24
  %28 = load ptr, ptr %5, align 8, !tbaa !9
  %29 = call i32 @strncmp(ptr noundef %28, ptr noundef @.str.21, i64 noundef 7) #14
  %30 = icmp eq i32 %29, 0
  br i1 %30, label %31, label %43

31:                                               ; preds = %27
  %32 = load ptr, ptr %5, align 8, !tbaa !9
  %33 = call ptr @X509_CRL_load_http(ptr noundef %32, ptr noundef null, ptr noundef null, i32 noundef 0)
  store ptr %33, ptr %9, align 8, !tbaa !71
  %34 = load ptr, ptr %9, align 8, !tbaa !71
  %35 = icmp eq ptr %34, null
  br i1 %35, label %36, label %42

36:                                               ; preds = %31
  %37 = load ptr, ptr @bio_err, align 8, !tbaa !35
  call void @ERR_print_errors(ptr noundef %37)
  %38 = load ptr, ptr @bio_err, align 8, !tbaa !35
  %39 = load ptr, ptr %8, align 8, !tbaa !9
  %40 = load ptr, ptr %5, align 8, !tbaa !9
  %41 = call i32 (ptr, ptr, ...) @BIO_printf(ptr noundef %38, ptr noundef @.str.22, ptr noundef %39, ptr noundef %40)
  br label %42

42:                                               ; preds = %36, %31
  br label %49

43:                                               ; preds = %27, %24
  %44 = load ptr, ptr %5, align 8, !tbaa !9
  %45 = load i32, ptr %6, align 4, !tbaa !25
  %46 = load i32, ptr %7, align 4, !tbaa !25
  %47 = load ptr, ptr %8, align 8, !tbaa !9
  %48 = call i32 @load_key_certs_crls(ptr noundef %44, i32 noundef %45, i32 noundef %46, ptr noundef null, ptr noundef %47, i32 noundef 0, ptr noundef null, ptr noundef null, ptr noundef null, ptr noundef null, ptr noundef null, ptr noundef %9, ptr noundef null)
  br label %49

49:                                               ; preds = %43, %42
  br label %50

50:                                               ; preds = %49, %20
  %51 = load ptr, ptr %9, align 8, !tbaa !71
  call void @llvm.lifetime.end.p0(i64 8, ptr %9) #12
  ret ptr %51
}