; Function Attrs: nounwind uwtable
define dso_local ptr @load_crl(ptr noundef %0, i32 noundef %1, i32 noundef %2, ptr noundef %3) local_unnamed_addr #0 {
  %5 = alloca ptr, align 8
  call void @llvm.lifetime.start.p0(i64 8, ptr nonnull %5) #27
  store ptr null, ptr %5, align 8, !tbaa !41
  %6 = icmp eq ptr %3, null
  %spec.store.select = select i1 %6, ptr @.str.23, ptr %3
  %.not = icmp eq ptr %0, null
  br i1 %.not, label %.split, label %7

7:                                                ; preds = %4
  %8 = tail call i32 @strncmp(ptr noundef nonnull dereferenceable(1) %0, ptr noundef nonnull dereferenceable(9) @.str.19, i64 noundef 8) #29
  %9 = icmp eq i32 %8, 0
  br i1 %9, label %10, label %14

10:                                               ; preds = %7
  %11 = load ptr, ptr @bio_err, align 8, !tbaa !26
  %12 = tail call i32 (ptr, ptr, ...) @BIO_printf(ptr noundef %11, ptr noundef nonnull @.str.20, ptr noundef nonnull %spec.store.select) #27
  br label %25

.split:                                           ; preds = %4
  %13 = call i32 @load_key_certs_crls(ptr noundef null, i32 noundef %1, i32 noundef %2, ptr noundef null, ptr noundef nonnull %spec.store.select, i32 noundef 0, ptr noundef null, ptr noundef null, ptr noundef null, ptr noundef null, ptr noundef null, ptr noundef nonnull %5, ptr noundef null)
  br label %25

14:                                               ; preds = %7
  %15 = tail call i32 @strncmp(ptr noundef nonnull dereferenceable(1) %0, ptr noundef nonnull dereferenceable(8) @.str.21, i64 noundef 7) #29
  %16 = icmp eq i32 %15, 0
  br i1 %16, label %18, label %.split12

.split12:                                         ; preds = %14
  %17 = call i32 @load_key_certs_crls(ptr noundef nonnull %0, i32 noundef %1, i32 noundef %2, ptr noundef null, ptr noundef nonnull %spec.store.select, i32 noundef 0, ptr noundef null, ptr noundef null, ptr noundef null, ptr noundef null, ptr noundef null, ptr noundef nonnull %5, ptr noundef null)
  br label %25

18:                                               ; preds = %14
  %19 = tail call ptr @X509_CRL_load_http(ptr noundef nonnull %0, ptr noundef null, ptr noundef null, i32 noundef 0) #27
  store ptr %19, ptr %5, align 8, !tbaa !41
  %20 = icmp eq ptr %19, null
  br i1 %20, label %21, label %25

21:                                               ; preds = %18
  %22 = load ptr, ptr @bio_err, align 8, !tbaa !26
  tail call void @ERR_print_errors(ptr noundef %22) #27
  %23 = load ptr, ptr @bio_err, align 8, !tbaa !26
  %24 = tail call i32 (ptr, ptr, ...) @BIO_printf(ptr noundef %23, ptr noundef nonnull @.str.22, ptr noundef nonnull %spec.store.select, ptr noundef nonnull %0) #27
  br label %25

25:                                               ; preds = %.split, %.split12, %21, %18, %10
  %26 = load ptr, ptr %5, align 8, !tbaa !41
  call void @llvm.lifetime.end.p0(i64 8, ptr nonnull %5) #27
  ret ptr %26
}